target datalayout = "e-m:e-p270:32:32-p271:32:32-p272:64:64-i64:64-i128:128-f80:128-n8:16:32:64-S128"
target triple = "x86_64-pc-linux-gnu"

%"struct.c4::yml::Callbacks" = type { ptr, ptr, ptr, ptr }
%"struct.c4::basic_substring.0" = type { ptr, i64 }
%"struct.c4::basic_substring" = type { ptr, i64 }
%"class.c4::yml::Tree" = type { ptr, i64, i64, i64, i64, %"struct.c4::basic_substring", i64, %"struct.c4::yml::Callbacks", [4 x %"struct.c4::yml::TagDirective"] }
%"struct.c4::yml::TagDirective" = type { %"struct.c4::basic_substring.0", %"struct.c4::basic_substring.0", i64 }
%"struct.c4::yml::NodeData" = type { %"struct.c4::yml::NodeType", %"struct.c4::yml::NodeScalar", %"struct.c4::yml::NodeScalar", i64, i64, i64, i64, i64 }
%"struct.c4::yml::NodeType" = type { i64 }
%"struct.c4::yml::NodeScalar" = type { %"struct.c4::basic_substring.0", %"struct.c4::basic_substring.0", %"struct.c4::basic_substring.0" }

; Function Attrs: inlinehint mustprogress nounwind uwtable
define linkonce_odr noundef ptr @_ZNK2c43yml4Tree2_pEm(ptr noundef nonnull align 8 dereferenceable(256) %0, i64 noundef %1) #3 comdat align 2 {
  %3 = alloca ptr, align 8
  %4 = alloca i64, align 8
  store ptr %0, ptr %3, align 8, !tbaa !96
  store i64 %1, ptr %4, align 8, !tbaa !15
  %5 = load ptr, ptr %3, align 8
  %6 = getelementptr inbounds nuw %"class.c4::yml::Tree", ptr %5, i32 0, i32 0
  %7 = load ptr, ptr %6, align 8, !tbaa !118
  %8 = load i64, ptr %4, align 8, !tbaa !15
  %9 = getelementptr inbounds nuw %"struct.c4::yml::NodeData", ptr %7, i64 %8
  ret ptr %9
}

; Function Attrs: mustprogress uwtable
define linkonce_odr noundef i64 @_ZNK2c43yml4Tree12next_siblingEm(ptr noundef nonnull align 8 dereferenceable(256) %0, i64 noundef %1) #1 comdat align 2 {
  %3 = alloca ptr, align 8
  %4 = alloca i64, align 8
  store ptr %0, ptr %3, align 8, !tbaa !96
  store i64 %1, ptr %4, align 8, !tbaa !15
  %5 = load ptr, ptr %3, align 8
  %6 = load i64, ptr %4, align 8, !tbaa !15
  %7 = call noundef ptr @_ZNK2c43yml4Tree2_pEm(ptr noundef nonnull align 8 dereferenceable(256) %5, i64 noundef %6)
  %8 = getelementptr inbounds nuw %"struct.c4::yml::NodeData", ptr %7, i32 0, i32 6
  %9 = load i64, ptr %8, align 8, !tbaa !127
  ret i64 %9
}

; Function Attrs: inlinehint mustprogress nounwind uwtable
define linkonce_odr noundef ptr @_ZN2c43yml4Tree2_pEm(ptr noundef nonnull align 8 dereferenceable(256) %0, i64 noundef %1) #3 comdat align 2 {
  %3 = alloca ptr, align 8
  %4 = alloca i64, align 8
  store ptr %0, ptr %3, align 8, !tbaa !96
  store i64 %1, ptr %4, align 8, !tbaa !15
  %5 = load ptr, ptr %3, align 8
  %6 = getelementptr inbounds nuw %"class.c4::yml::Tree", ptr %5, i32 0, i32 0
  %7 = load ptr, ptr %6, align 8, !tbaa !118
  %8 = load i64, ptr %4, align 8, !tbaa !15
  %9 = getelementptr inbounds nuw %"struct.c4::yml::NodeData", ptr %7, i64 %8
  ret ptr %9
}

; Function Attrs: mustprogress uwtable
define void @_ZN2c43yml4Tree15_copy_hierarchyEmm(ptr noundef nonnull align 8 dereferenceable(256) %0, i64 noundef %1, i64 noundef %2) #1 align 2 {
  %4 = alloca ptr, align 8
  %5 = alloca i64, align 8
  %6 = alloca i64, align 8
  %7 = alloca ptr, align 8
  %8 = alloca ptr, align 8
  %9 = alloca ptr, align 8
  %10 = alloca i64, align 8
  store ptr %0, ptr %4, align 8, !tbaa !96
  store i64 %1, ptr %5, align 8, !tbaa !15
  store i64 %2, ptr %6, align 8, !tbaa !15
  %11 = load ptr, ptr %4, align 8
  call void @llvm.lifetime.start.p0(i64 8, ptr %7) #25
  %12 = load i64, ptr %6, align 8, !tbaa !15
  %13 = call noundef ptr @_ZN2c43yml4Tree2_pEm(ptr noundef nonnull align 8 dereferenceable(256) %11, i64 noundef %12)
  store ptr %13, ptr %7, align 8, !tbaa !125
  call void @llvm.lifetime.start.p0(i64 8, ptr %8) #25
  %14 = load i64, ptr %5, align 8, !tbaa !15
  %15 = call noundef ptr @_ZN2c43yml4Tree2_pEm(ptr noundef nonnull align 8 dereferenceable(256) %11, i64 noundef %14)
  store ptr %15, ptr %8, align 8, !tbaa !125
  call void @llvm.lifetime.start.p0(i64 8, ptr %9) #25
  %16 = load ptr, ptr %7, align 8, !tbaa !125
  %17 = getelementptr inbounds nuw %"struct.c4::yml::NodeData", ptr %16, i32 0, i32 3
  %18 = load i64, ptr %17, align 8, !tbaa !145
  %19 = call noundef ptr @_ZN2c43yml4Tree2_pEm(ptr noundef nonnull align 8 dereferenceable(256) %11, i64 noundef %18)
  store ptr %19, ptr %9, align 8, !tbaa !125
  call void @llvm.lifetime.start.p0(i64 8, ptr %10) #25
  %20 = load ptr, ptr %7, align 8, !tbaa !125
  %21 = getelementptr inbounds nuw %"struct.c4::yml::NodeData", ptr %20, i32 0, i32 4
  %22 = load i64, ptr %21, align 8, !tbaa !146
  store i64 %22, ptr %10, align 8, !tbaa !15
  br label %23

23:                                               ; preds = %32, %3
  %24 = load i64, ptr %10, align 8, !tbaa !15
  %25 = icmp ne i64 %24, -1
  br i1 %25, label %27, label %26

26:                                               ; preds = %23
  call void @llvm.lifetime.end.p0(i64 8, ptr %10) #25
  br label %35

27:                                               ; preds = %23
  %28 = load i64, ptr %5, align 8, !tbaa !15
  %29 = load i64, ptr %10, align 8, !tbaa !15
  %30 = call noundef ptr @_ZN2c43yml4Tree2_pEm(ptr noundef nonnull align 8 dereferenceable(256) %11, i64 noundef %29)
  %31 = getelementptr inbounds nuw %"struct.c4::yml::NodeData", ptr %30, i32 0, i32 3
  store i64 %28, ptr %31, align 8, !tbaa !145
  br label %32

32:                                               ; preds = %27
  %33 = load i64, ptr %10, align 8, !tbaa !15
  %34 = call noundef i64 @_ZNK2c43yml4Tree12next_siblingEm(ptr noundef nonnull align 8 dereferenceable(256) %11, i64 noundef %33)
  store i64 %34, ptr %10, align 8, !tbaa !15
  br label %23, !llvm.loop !155

35:                                               ; preds = %26
  %36 = load ptr, ptr %7, align 8, !tbaa !125
  %37 = getelementptr inbounds nuw %"struct.c4::yml::NodeData", ptr %36, i32 0, i32 7
  %38 = load i64, ptr %37, align 8, !tbaa !131
  %39 = icmp ne i64 %38, -1
  br i1 %39, label %40, label %47

40:                                               ; preds = %35
  %41 = load i64, ptr %5, align 8, !tbaa !15
  %42 = load ptr, ptr %7, align 8, !tbaa !125
  %43 = getelementptr inbounds nuw %"struct.c4::yml::NodeData", ptr %42, i32 0, i32 7
  %44 = load i64, ptr %43, align 8, !tbaa !131
  %45 = call noundef ptr @_ZN2c43yml4Tree2_pEm(ptr noundef nonnull align 8 dereferenceable(256) %11, i64 noundef %44)
  %46 = getelementptr inbounds nuw %"struct.c4::yml::NodeData", ptr %45, i32 0, i32 6
  store i64 %41, ptr %46, align 8, !tbaa !127
  br label %47

47:                                               ; preds = %40, %35
  %48 = load ptr, ptr %7, align 8, !tbaa !125
  %49 = getelementptr inbounds nuw %"struct.c4::yml::NodeData", ptr %48, i32 0, i32 6
  %50 = load i64, ptr %49, align 8, !tbaa !127
  %51 = icmp ne i64 %50, -1
  br i1 %51, label %52, label %59

52:                                               ; preds = %47
  %53 = load i64, ptr %5, align 8, !tbaa !15
  %54 = load ptr, ptr %7, align 8, !tbaa !125
  %55 = getelementptr inbounds nuw %"struct.c4::yml::NodeData", ptr %54, i32 0, i32 6
  %56 = load i64, ptr %55, align 8, !tbaa !127
  %57 = call noundef ptr @_ZN2c43yml4Tree2_pEm(ptr noundef nonnull align 8 dereferenceable(256) %11, i64 noundef %56)
  %58 = getelementptr inbounds nuw %"struct.c4::yml::NodeData", ptr %57, i32 0, i32 7
  store i64 %53, ptr %58, align 8, !tbaa !131
  br label %59

59:                                               ; preds = %52, %47
  %60 = load ptr, ptr %9, align 8, !tbaa !125
  %61 = getelementptr inbounds nuw %"struct.c4::yml::NodeData", ptr %60, i32 0, i32 4
  %62 = load i64, ptr %61, align 8, !tbaa !146
  %63 = load i64, ptr %6, align 8, !tbaa !15
  %64 = icmp eq i64 %62, %63
  br i1 %64, label %65, label %69

65:                                               ; preds = %59
  %66 = load i64, ptr %5, align 8, !tbaa !15
  %67 = load ptr, ptr %9, align 8, !tbaa !125
  %68 = getelementptr inbounds nuw %"struct.c4::yml::NodeData", ptr %67, i32 0, i32 4
  store i64 %66, ptr %68, align 8, !tbaa !146
  br label %69

69:                                               ; preds = %65, %59
  %70 = load ptr, ptr %9, align 8, !tbaa !125
  %71 = getelementptr inbounds nuw %"struct.c4::yml::NodeData", ptr %70, i32 0, i32 5
  %72 = load i64, ptr %71, align 8, !tbaa !147
  %73 = load i64, ptr %6, align 8, !tbaa !15
  %74 = icmp eq i64 %72, %73
  br i1 %74, label %75, label %79

75:                                               ; preds = %69
  %76 = load i64, ptr %5, align 8, !tbaa !15
  %77 = load ptr, ptr %9, align 8, !tbaa !125
  %78 = getelementptr inbounds nuw %"struct.c4::yml::NodeData", ptr %77, i32 0, i32 5
  store i64 %76, ptr %78, align 8, !tbaa !147
  br label %79

79:                                               ; preds = %75, %69
  %80 = load ptr, ptr %7, align 8, !tbaa !125
  %81 = getelementptr inbounds nuw %"struct.c4::yml::NodeData", ptr %80, i32 0, i32 3
  %82 = load i64, ptr %81, align 8, !tbaa !145
  %83 = load ptr, ptr %8, align 8, !tbaa !125
  %84 = getelementptr inbounds nuw %"struct.c4::yml::NodeData", ptr %83, i32 0, i32 3
  store i64 %82, ptr %84, align 8, !tbaa !145
  %85 = load ptr, ptr %7, align 8, !tbaa !125
  %86 = getelementptr inbounds nuw %"struct.c4::yml::NodeData", ptr %85, i32 0, i32 4
  %87 = load i64, ptr %86, align 8, !tbaa !146
  %88 = load ptr, ptr %8, align 8, !tbaa !125
  %89 = getelementptr inbounds nuw %"struct.c4::yml::NodeData", ptr %88, i32 0, i32 4
  store i64 %87, ptr %89, align 8, !tbaa !146
  %90 = load ptr, ptr %7, align 8, !tbaa !125
  %91 = getelementptr inbounds nuw %"struct.c4::yml::NodeData", ptr %90, i32 0, i32 5
  %92 = load i64, ptr %91, align 8, !tbaa !147
  %93 = load ptr, ptr %8, align 8, !tbaa !125
  %94 = getelementptr inbounds nuw %"struct.c4::yml::NodeData", ptr %93, i32 0, i32 5
  store i64 %92, ptr %94, align 8, !tbaa !147
  %95 = load ptr, ptr %7, align 8, !tbaa !125
  %96 = getelementptr inbounds nuw %"struct.c4::yml::NodeData", ptr %95, i32 0, i32 7
  %97 = load i64, ptr %96, align 8, !tbaa !131
  %98 = load ptr, ptr %8, align 8, !tbaa !125
  %99 = getelementptr inbounds nuw %"struct.c4::yml::NodeData", ptr %98, i32 0, i32 7
  store i64 %97, ptr %99, align 8, !tbaa !131
  %100 = load ptr, ptr %7, align 8, !tbaa !125
  %101 = getelementptr inbounds nuw %"struct.c4::yml::NodeData", ptr %100, i32 0, i32 6
  %102 = load i64, ptr %101, align 8, !tbaa !127
  %103 = load ptr, ptr %8, align 8, !tbaa !125
  %104 = getelementptr inbounds nuw %"struct.c4::yml::NodeData", ptr %103, i32 0, i32 6
  store i64 %102, ptr %104, align 8, !tbaa !127
  call void @llvm.lifetime.end.p0(i64 8, ptr %9) #25
  call void @llvm.lifetime.end.p0(i64 8, ptr %8) #25
  call void @llvm.lifetime.end.p0(i64 8, ptr %7) #25
  ret void
}