; Function Attrs: mustprogress nofree norecurse nosync nounwind memory(readwrite, inaccessiblemem: none) uwtable
define void @_ZN2c43yml4Tree15_copy_hierarchyEmm(ptr noundef nonnull readonly align 8 captures(none) dereferenceable(256) %0, i64 noundef %1, i64 noundef %2) local_unnamed_addr #28 align 2 {
  %4 = load ptr, ptr %0, align 8, !tbaa !116
  %5 = getelementptr inbounds nuw %"struct.c4::yml::NodeData", ptr %4, i64 %2
  %6 = getelementptr inbounds nuw i8, ptr %5, i64 104
  %7 = load i64, ptr %6, align 8, !tbaa !138
  %8 = getelementptr inbounds nuw %"struct.c4::yml::NodeData", ptr %4, i64 %7
  %9 = getelementptr inbounds nuw i8, ptr %5, i64 112
  %.036 = load i64, ptr %9, align 8, !tbaa !68
  %.not37 = icmp eq i64 %.036, -1
  br i1 %.not37, label %._crit_edge, label %.lr.ph

._crit_edge:                                      ; preds = %.lr.ph, %3
  %10 = getelementptr inbounds nuw i8, ptr %5, i64 136
  %11 = load i64, ptr %10, align 8, !tbaa !133
  %.not34 = icmp eq i64 %11, -1
  br i1 %.not34, label %16, label %14

.lr.ph:                                           ; preds = %3, %.lr.ph
  %.038 = phi i64 [ %.0, %.lr.ph ], [ %.036, %3 ]
  %12 = getelementptr inbounds nuw %"struct.c4::yml::NodeData", ptr %4, i64 %.038, i32 3
  store i64 %1, ptr %12, align 8, !tbaa !138
  %13 = getelementptr inbounds nuw %"struct.c4::yml::NodeData", ptr %4, i64 %.038, i32 6
  %.0 = load i64, ptr %13, align 8, !tbaa !68
  %.not = icmp eq i64 %.0, -1
  br i1 %.not, label %._crit_edge, label %.lr.ph, !llvm.loop !154

14:                                               ; preds = %._crit_edge
  %15 = getelementptr inbounds nuw %"struct.c4::yml::NodeData", ptr %4, i64 %11, i32 6
  store i64 %1, ptr %15, align 8, !tbaa !128
  br label %16

16:                                               ; preds = %14, %._crit_edge
  %17 = getelementptr inbounds nuw i8, ptr %5, i64 128
  %18 = load i64, ptr %17, align 8, !tbaa !128
  %.not35 = icmp eq i64 %18, -1
  br i1 %.not35, label %21, label %19

19:                                               ; preds = %16
  %20 = getelementptr inbounds nuw %"struct.c4::yml::NodeData", ptr %4, i64 %18, i32 7
  store i64 %1, ptr %20, align 8, !tbaa !133
  br label %21

21:                                               ; preds = %19, %16
  %22 = getelementptr inbounds nuw i8, ptr %8, i64 112
  %23 = load i64, ptr %22, align 8, !tbaa !149
  %24 = icmp eq i64 %23, %2
  br i1 %24, label %25, label %26

25:                                               ; preds = %21
  store i64 %1, ptr %22, align 8, !tbaa !149
  br label %26

26:                                               ; preds = %25, %21
  %27 = getelementptr inbounds nuw i8, ptr %8, i64 120
  %28 = load i64, ptr %27, align 8, !tbaa !150
  %29 = icmp eq i64 %28, %2
  br i1 %29, label %30, label %31

30:                                               ; preds = %26
  store i64 %1, ptr %27, align 8, !tbaa !150
  br label %31

31:                                               ; preds = %30, %26
  %32 = getelementptr inbounds nuw %"struct.c4::yml::NodeData", ptr %4, i64 %1
  %33 = load i64, ptr %6, align 8, !tbaa !138
  %34 = getelementptr inbounds nuw i8, ptr %32, i64 104
  store i64 %33, ptr %34, align 8, !tbaa !138
  %35 = load i64, ptr %9, align 8, !tbaa !149
  %36 = getelementptr inbounds nuw i8, ptr %32, i64 112
  store i64 %35, ptr %36, align 8, !tbaa !149
  %37 = getelementptr inbounds nuw i8, ptr %5, i64 120
  %38 = load i64, ptr %37, align 8, !tbaa !150
  %39 = getelementptr inbounds nuw i8, ptr %32, i64 120
  store i64 %38, ptr %39, align 8, !tbaa !150
  %40 = load i64, ptr %10, align 8, !tbaa !133
  %41 = getelementptr inbounds nuw i8, ptr %32, i64 136
  store i64 %40, ptr %41, align 8, !tbaa !133
  %42 = getelementptr inbounds nuw i8, ptr %32, i64 128
  store i64 %18, ptr %42, align 8, !tbaa !128
  ret void
}